target datalayout = "e-m:e-p270:32:32-p271:32:32-p272:64:64-i64:64-i128:128-f80:128-n8:16:32:64-S128"
target triple = "x86_64-pc-linux-gnu"

%struct.AudioDSPContext = type { ptr, ptr, ptr }

@ff_sqrt_tab = external constant [256 x i8], align 16
@ff_inverse = external constant [257 x i32], align 16
@ff_log2_tab = external constant [256 x i8], align 16

; Function Attrs: alwaysinline nounwind willreturn memory(none) uwtable
define internal i32 @ff_log2_16bit_c(i32 noundef %0) #6 {
  %2 = alloca i32, align 4
  %3 = alloca i32, align 4
  store i32 %0, ptr %2, align 4, !tbaa !9
  call void @llvm.lifetime.start.p0(i64 4, ptr %3) #7
  store i32 0, ptr %3, align 4, !tbaa !9
  %4 = load i32, ptr %2, align 4, !tbaa !9
  %5 = and i32 %4, 65280
  %6 = icmp ne i32 %5, 0
  br i1 %6, label %7, label %12

7:                                                ; preds = %1
  %8 = load i32, ptr %2, align 4, !tbaa !9
  %9 = lshr i32 %8, 8
  store i32 %9, ptr %2, align 4, !tbaa !9
  %10 = load i32, ptr %3, align 4, !tbaa !9
  %11 = add nsw i32 %10, 8
  store i32 %11, ptr %3, align 4, !tbaa !9
  br label %12

12:                                               ; preds = %7, %1
  %13 = load i32, ptr %2, align 4, !tbaa !9
  %14 = zext i32 %13 to i64
  %15 = getelementptr inbounds nuw [256 x i8], ptr @ff_log2_tab, i64 0, i64 %14
  %16 = load i8, ptr %15, align 1, !tbaa !26
  %17 = zext i8 %16 to i32
  %18 = load i32, ptr %3, align 4, !tbaa !9
  %19 = add nsw i32 %18, %17
  store i32 %19, ptr %3, align 4, !tbaa !9
  %20 = load i32, ptr %3, align 4, !tbaa !9
  call void @llvm.lifetime.end.p0(i64 4, ptr %3) #7
  ret i32 %20
}

; Function Attrs: inlinehint nounwind willreturn memory(none) uwtable
define internal i32 @ff_sqrt(i32 noundef %0) #4 {
  %2 = alloca i32, align 4
  %3 = alloca i32, align 4
  %4 = alloca i32, align 4
  %5 = alloca i32, align 4
  %6 = alloca i32, align 4
  %7 = alloca i32, align 4
  store i32 %0, ptr %3, align 4, !tbaa !9
  call void @llvm.lifetime.start.p0(i64 4, ptr %4) #7
  %8 = load i32, ptr %3, align 4, !tbaa !9
  %9 = icmp ult i32 %8, 255
  br i1 %9, label %10, label %19

10:                                               ; preds = %1
  %11 = load i32, ptr %3, align 4, !tbaa !9
  %12 = add i32 %11, 1
  %13 = zext i32 %12 to i64
  %14 = getelementptr inbounds nuw [256 x i8], ptr @ff_sqrt_tab, i64 0, i64 %13
  %15 = load i8, ptr %14, align 1, !tbaa !26
  %16 = zext i8 %15 to i32
  %17 = sub nsw i32 %16, 1
  %18 = ashr i32 %17, 4
  store i32 %18, ptr %2, align 4
  store i32 1, ptr %5, align 4
  br label %94

19:                                               ; preds = %1
  %20 = load i32, ptr %3, align 4, !tbaa !9
  %21 = icmp ult i32 %20, 4096
  br i1 %21, label %22, label %30

22:                                               ; preds = %19
  %23 = load i32, ptr %3, align 4, !tbaa !9
  %24 = lshr i32 %23, 4
  %25 = zext i32 %24 to i64
  %26 = getelementptr inbounds nuw [256 x i8], ptr @ff_sqrt_tab, i64 0, i64 %25
  %27 = load i8, ptr %26, align 1, !tbaa !26
  %28 = zext i8 %27 to i32
  %29 = ashr i32 %28, 2
  store i32 %29, ptr %4, align 4, !tbaa !9
  br label %84

30:                                               ; preds = %19
  %31 = load i32, ptr %3, align 4, !tbaa !9
  %32 = icmp ult i32 %31, 16384
  br i1 %32, label %33, label %41

33:                                               ; preds = %30
  %34 = load i32, ptr %3, align 4, !tbaa !9
  %35 = lshr i32 %34, 6
  %36 = zext i32 %35 to i64
  %37 = getelementptr inbounds nuw [256 x i8], ptr @ff_sqrt_tab, i64 0, i64 %36
  %38 = load i8, ptr %37, align 1, !tbaa !26
  %39 = zext i8 %38 to i32
  %40 = ashr i32 %39, 1
  store i32 %40, ptr %4, align 4, !tbaa !9
  br label %83

41:                                               ; preds = %30
  %42 = load i32, ptr %3, align 4, !tbaa !9
  %43 = icmp ult i32 %42, 65536
  br i1 %43, label %44, label %51

44:                                               ; preds = %41
  %45 = load i32, ptr %3, align 4, !tbaa !9
  %46 = lshr i32 %45, 8
  %47 = zext i32 %46 to i64
  %48 = getelementptr inbounds nuw [256 x i8], ptr @ff_sqrt_tab, i64 0, i64 %47
  %49 = load i8, ptr %48, align 1, !tbaa !26
  %50 = zext i8 %49 to i32
  store i32 %50, ptr %4, align 4, !tbaa !9
  br label %82

51:                                               ; preds = %41
  call void @llvm.lifetime.start.p0(i64 4, ptr %6) #7
  %52 = load i32, ptr %3, align 4, !tbaa !9
  %53 = lshr i32 %52, 16
  %54 = call i32 @ff_log2_16bit_c(i32 noundef %53) #8
  %55 = ashr i32 %54, 1
  store i32 %55, ptr %6, align 4, !tbaa !9
  call void @llvm.lifetime.start.p0(i64 4, ptr %7) #7
  %56 = load i32, ptr %3, align 4, !tbaa !9
  %57 = load i32, ptr %6, align 4, !tbaa !9
  %58 = add nsw i32 %57, 2
  %59 = lshr i32 %56, %58
  store i32 %59, ptr %7, align 4, !tbaa !9
  %60 = load i32, ptr %7, align 4, !tbaa !9
  %61 = load i32, ptr %6, align 4, !tbaa !9
  %62 = add nsw i32 %61, 8
  %63 = lshr i32 %60, %62
  %64 = zext i32 %63 to i64
  %65 = getelementptr inbounds nuw [256 x i8], ptr @ff_sqrt_tab, i64 0, i64 %64
  %66 = load i8, ptr %65, align 1, !tbaa !26
  %67 = zext i8 %66 to i32
  store i32 %67, ptr %4, align 4, !tbaa !9
  %68 = load i32, ptr %7, align 4, !tbaa !9
  %69 = zext i32 %68 to i64
  %70 = load i32, ptr %4, align 4, !tbaa !9
  %71 = zext i32 %70 to i64
  %72 = getelementptr inbounds nuw [257 x i32], ptr @ff_inverse, i64 0, i64 %71
  %73 = load i32, ptr %72, align 4, !tbaa !9
  %74 = zext i32 %73 to i64
  %75 = mul i64 %69, %74
  %76 = lshr i64 %75, 32
  %77 = trunc i64 %76 to i32
  %78 = load i32, ptr %4, align 4, !tbaa !9
  %79 = load i32, ptr %6, align 4, !tbaa !9
  %80 = shl i32 %78, %79
  %81 = add i32 %77, %80
  store i32 %81, ptr %4, align 4, !tbaa !9
  call void @llvm.lifetime.end.p0(i64 4, ptr %7) #7
  call void @llvm.lifetime.end.p0(i64 4, ptr %6) #7
  br label %82

82:                                               ; preds = %51, %44
  br label %83

83:                                               ; preds = %82, %33
  br label %84

84:                                               ; preds = %83, %22
  br label %85

85:                                               ; preds = %84
  %86 = load i32, ptr %4, align 4, !tbaa !9
  %87 = load i32, ptr %3, align 4, !tbaa !9
  %88 = load i32, ptr %4, align 4, !tbaa !9
  %89 = load i32, ptr %4, align 4, !tbaa !9
  %90 = mul i32 %88, %89
  %91 = icmp ult i32 %87, %90
  %92 = zext i1 %91 to i32
  %93 = sub i32 %86, %92
  store i32 %93, ptr %2, align 4
  store i32 1, ptr %5, align 4
  br label %94

94:                                               ; preds = %85, %10
  call void @llvm.lifetime.end.p0(i64 4, ptr %4) #7
  %95 = load i32, ptr %2, align 4
  ret i32 %95
}

; Function Attrs: nounwind uwtable
define i32 @ff_t_sqrt(i32 noundef %0) #0 {
  %2 = alloca i32, align 4
  %3 = alloca i32, align 4
  store i32 %0, ptr %2, align 4, !tbaa !9
  call void @llvm.lifetime.start.p0(i64 4, ptr %3) #7
  store i32 2, ptr %3, align 4, !tbaa !9
  br label %4

4:                                                ; preds = %7, %1
  %5 = load i32, ptr %2, align 4, !tbaa !9
  %6 = icmp ugt i32 %5, 4095
  br i1 %6, label %7, label %12

7:                                                ; preds = %4
  %8 = load i32, ptr %3, align 4, !tbaa !9
  %9 = add nsw i32 %8, 1
  store i32 %9, ptr %3, align 4, !tbaa !9
  %10 = load i32, ptr %2, align 4, !tbaa !9
  %11 = lshr i32 %10, 2
  store i32 %11, ptr %2, align 4, !tbaa !9
  br label %4, !llvm.loop !25

12:                                               ; preds = %4
  %13 = load i32, ptr %2, align 4, !tbaa !9
  %14 = shl i32 %13, 20
  %15 = call i32 @ff_sqrt(i32 noundef %14) #8
  %16 = load i32, ptr %3, align 4, !tbaa !9
  %17 = shl i32 %15, %16
  call void @llvm.lifetime.end.p0(i64 4, ptr %3) #7
  ret i32 %17
}

; Function Attrs: nounwind uwtable
define i32 @ff_irms(ptr noundef %0, ptr noundef %1) #0 {
  %3 = alloca i32, align 4
  %4 = alloca ptr, align 8
  %5 = alloca ptr, align 8
  %6 = alloca i32, align 4
  %7 = alloca i32, align 4
  store ptr %0, ptr %4, align 8, !tbaa !39
  store ptr %1, ptr %5, align 8, !tbaa !4
  call void @llvm.lifetime.start.p0(i64 4, ptr %6) #7
  %8 = load ptr, ptr %4, align 8, !tbaa !39
  %9 = getelementptr inbounds nuw %struct.AudioDSPContext, ptr %8, i32 0, i32 0
  %10 = load ptr, ptr %9, align 8, !tbaa !41
  %11 = load ptr, ptr %5, align 8, !tbaa !4
  %12 = load ptr, ptr %5, align 8, !tbaa !4
  %13 = call i32 %10(ptr noundef %11, ptr noundef %12, i32 noundef 40)
  store i32 %13, ptr %6, align 4, !tbaa !9
  %14 = load i32, ptr %6, align 4, !tbaa !9
  %15 = icmp eq i32 %14, 0
  br i1 %15, label %16, label %17

16:                                               ; preds = %2
  store i32 0, ptr %3, align 4
  store i32 1, ptr %7, align 4
  br label %22

17:                                               ; preds = %2
  %18 = load i32, ptr %6, align 4, !tbaa !9
  %19 = call i32 @ff_t_sqrt(i32 noundef %18)
  %20 = ashr i32 %19, 8
  %21 = sdiv i32 536870912, %20
  store i32 %21, ptr %3, align 4
  store i32 1, ptr %7, align 4
  br label %22

22:                                               ; preds = %17, %16
  call void @llvm.lifetime.end.p0(i64 4, ptr %6) #7
  %23 = load i32, ptr %3, align 4
  ret i32 %23
}