; Function Attrs: nounwind uwtable
define range(i32 -536870912, 536870913) i32 @ff_irms(ptr noundef readonly captures(none) %0, ptr noundef %1) local_unnamed_addr #2 {
  %3 = load ptr, ptr %0, align 8, !tbaa !34
  %4 = tail call i32 %3(ptr noundef %1, ptr noundef %1, i32 noundef 40) #12
  %5 = icmp eq i32 %4, 0
  br i1 %5, label %48, label %6

6:                                                ; preds = %2
  %7 = icmp ugt i32 %4, 4095
  br i1 %7, label %.lr.ph.i, label %._crit_edge.i.thread

.lr.ph.i:                                         ; preds = %6, %.lr.ph.i
  %.07.i = phi i32 [ %8, %.lr.ph.i ], [ 2, %6 ]
  %.056.i = phi i32 [ %9, %.lr.ph.i ], [ %4, %6 ]
  %8 = add nuw nsw i32 %.07.i, 1
  %9 = lshr i32 %.056.i, 2
  %10 = icmp ugt i32 %.056.i, 16383
  br i1 %10, label %.lr.ph.i, label %._crit_edge.i, !llvm.loop !18

._crit_edge.i:                                    ; preds = %.lr.ph.i
  %11 = icmp samesign ult i32 %.056.i, 4
  br i1 %11, label %12, label %._crit_edge.i.thread

12:                                               ; preds = %._crit_edge.i
  %13 = load i8, ptr getelementptr inbounds nuw (i8, ptr @ff_sqrt_tab, i64 1), align 1, !tbaa !19
  %14 = zext i8 %13 to i32
  %15 = add nsw i32 %14, -1
  %16 = ashr i32 %15, 4
  br label %ff_t_sqrt.exit

._crit_edge.i.thread:                             ; preds = %6, %._crit_edge.i
  %.0.lcssa.i10 = phi i32 [ %8, %._crit_edge.i ], [ 2, %6 ]
  %.05.lcssa.i8 = phi i32 [ %9, %._crit_edge.i ], [ %4, %6 ]
  %17 = shl nuw i32 %.05.lcssa.i8, 20
  %.not.i.i.i = icmp samesign ult i32 %.05.lcssa.i8, 16
  %spec.select.i.v.i.i = select i1 %.not.i.i.i, i32 16, i32 24
  %spec.select.i.i.i = lshr i32 %17, %spec.select.i.v.i.i
  %spec.select7.i.i.i = select i1 %.not.i.i.i, i32 0, i32 8
  %18 = zext nneg i32 %spec.select.i.i.i to i64
  %19 = getelementptr inbounds nuw [256 x i8], ptr @ff_log2_tab, i64 0, i64 %18
  %20 = load i8, ptr %19, align 1, !tbaa !19
  %21 = zext i8 %20 to i32
  %22 = add nuw nsw i32 %spec.select7.i.i.i, %21
  %23 = lshr i32 %22, 1
  %24 = add nuw nsw i32 %23, 2
  %25 = lshr i32 %17, %24
  %26 = add nuw nsw i32 %23, 8
  %27 = lshr i32 %25, %26
  %28 = zext nneg i32 %27 to i64
  %29 = getelementptr inbounds nuw [256 x i8], ptr @ff_sqrt_tab, i64 0, i64 %28
  %30 = load i8, ptr %29, align 1, !tbaa !19
  %31 = zext i8 %30 to i32
  %32 = zext nneg i32 %25 to i64
  %33 = zext i8 %30 to i64
  %34 = getelementptr inbounds nuw [257 x i32], ptr @ff_inverse, i64 0, i64 %33
  %35 = load i32, ptr %34, align 4, !tbaa !8
  %36 = zext i32 %35 to i64
  %37 = mul nuw nsw i64 %32, %36
  %38 = lshr i64 %37, 32
  %39 = trunc nuw nsw i64 %38 to i32
  %40 = shl i32 %31, %23
  %41 = add i32 %40, %39
  %42 = mul i32 %41, %41
  %43 = icmp ult i32 %17, %42
  %.neg.i.i = sext i1 %43 to i32
  %44 = add i32 %41, %.neg.i.i
  br label %ff_t_sqrt.exit

ff_t_sqrt.exit:                                   ; preds = %12, %._crit_edge.i.thread
  %.0.lcssa.i9 = phi i32 [ %8, %12 ], [ %.0.lcssa.i10, %._crit_edge.i.thread ]
  %.0.i.i = phi i32 [ %16, %12 ], [ %44, %._crit_edge.i.thread ]
  %45 = shl i32 %.0.i.i, %.0.lcssa.i9
  %46 = ashr i32 %45, 8
  %47 = sdiv i32 536870912, %46
  br label %48

48:                                               ; preds = %2, %ff_t_sqrt.exit
  %.0 = phi i32 [ %47, %ff_t_sqrt.exit ], [ 0, %2 ]
  ret i32 %.0
}